; Function Attrs: mustprogress nofree norecurse nosync nounwind willreturn memory(read, inaccessiblemem: none) uwtable
define hidden noundef i32 @_ZNK2dd3fdd7var2posEj(ptr nocapture noundef nonnull readonly align 8 dereferenceable(40) %this, i32 noundef %var) local_unnamed_addr #5 align 2 {
entry:
  %m_var2pos = getelementptr inbounds i8, ptr %this, i64 8
  %0 = load ptr, ptr %m_var2pos, align 8
  %cmp.i = icmp eq ptr %0, null
  br i1 %cmp.i, label %cond.end, label %_ZNK6vectorIjLb0EjE4sizeEv.exit

_ZNK6vectorIjLb0EjE4sizeEv.exit:                  ; preds = %entry
  %arrayidx.i = getelementptr inbounds i8, ptr %0, i64 -4
  %1 = load i32, ptr %arrayidx.i, align 4
  %cmp = icmp ugt i32 %1, %var
  br i1 %cmp, label %cond.true, label %cond.end

cond.true:                                        ; preds = %_ZNK6vectorIjLb0EjE4sizeEv.exit
  %idxprom.i = zext i32 %var to i64
  %arrayidx.i2 = getelementptr inbounds i32, ptr %0, i64 %idxprom.i
  %2 = load i32, ptr %arrayidx.i2, align 4
  br label %cond.end

cond.end:                                         ; preds = %entry, %_ZNK6vectorIjLb0EjE4sizeEv.exit, %cond.true
  %cond = phi i32 [ %2, %cond.true ], [ -1, %_ZNK6vectorIjLb0EjE4sizeEv.exit ], [ -1, %entry ]
  ret i32 %cond
}